
bufbomb:     file format elf32-i386


Disassembly of section .init:

0804867c <_init>:
 804867c:	55                   	push   %ebp
 804867d:	89 e5                	mov    %esp,%ebp
 804867f:	53                   	push   %ebx
 8048680:	83 ec 04             	sub    $0x4,%esp
 8048683:	e8 00 00 00 00       	call   8048688 <_init+0xc>
 8048688:	5b                   	pop    %ebx
 8048689:	81 c3 58 1a 00 00    	add    $0x1a58,%ebx
 804868f:	8b 93 fc ff ff ff    	mov    -0x4(%ebx),%edx
 8048695:	85 d2                	test   %edx,%edx
 8048697:	74 05                	je     804869e <_init+0x22>
 8048699:	e8 5e 00 00 00       	call   80486fc <__gmon_start__@plt>
 804869e:	e8 8d 02 00 00       	call   8048930 <frame_dummy>
 80486a3:	e8 28 0f 00 00       	call   80495d0 <__do_global_ctors_aux>
 80486a8:	58                   	pop    %eax
 80486a9:	5b                   	pop    %ebx
 80486aa:	c9                   	leave  
 80486ab:	c3                   	ret    

Disassembly of section .plt:

080486ac <sprintf@plt-0x10>:
 80486ac:	ff 35 e4 a0 04 08    	pushl  0x804a0e4
 80486b2:	ff 25 e8 a0 04 08    	jmp    *0x804a0e8
 80486b8:	00 00                	add    %al,(%eax)
	...

080486bc <sprintf@plt>:
 80486bc:	ff 25 ec a0 04 08    	jmp    *0x804a0ec
 80486c2:	68 00 00 00 00       	push   $0x0
 80486c7:	e9 e0 ff ff ff       	jmp    80486ac <_init+0x30>

080486cc <srand@plt>:
 80486cc:	ff 25 f0 a0 04 08    	jmp    *0x804a0f0
 80486d2:	68 08 00 00 00       	push   $0x8
 80486d7:	e9 d0 ff ff ff       	jmp    80486ac <_init+0x30>

080486dc <random@plt>:
 80486dc:	ff 25 f4 a0 04 08    	jmp    *0x804a0f4
 80486e2:	68 10 00 00 00       	push   $0x10
 80486e7:	e9 c0 ff ff ff       	jmp    80486ac <_init+0x30>

080486ec <signal@plt>:
 80486ec:	ff 25 f8 a0 04 08    	jmp    *0x804a0f8
 80486f2:	68 18 00 00 00       	push   $0x18
 80486f7:	e9 b0 ff ff ff       	jmp    80486ac <_init+0x30>

080486fc <__gmon_start__@plt>:
 80486fc:	ff 25 fc a0 04 08    	jmp    *0x804a0fc
 8048702:	68 20 00 00 00       	push   $0x20
 8048707:	e9 a0 ff ff ff       	jmp    80486ac <_init+0x30>

0804870c <calloc@plt>:
 804870c:	ff 25 00 a1 04 08    	jmp    *0x804a100
 8048712:	68 28 00 00 00       	push   $0x28
 8048717:	e9 90 ff ff ff       	jmp    80486ac <_init+0x30>

0804871c <system@plt>:
 804871c:	ff 25 04 a1 04 08    	jmp    *0x804a104
 8048722:	68 30 00 00 00       	push   $0x30
 8048727:	e9 80 ff ff ff       	jmp    80486ac <_init+0x30>

0804872c <memset@plt>:
 804872c:	ff 25 08 a1 04 08    	jmp    *0x804a108
 8048732:	68 38 00 00 00       	push   $0x38
 8048737:	e9 70 ff ff ff       	jmp    80486ac <_init+0x30>

0804873c <__libc_start_main@plt>:
 804873c:	ff 25 0c a1 04 08    	jmp    *0x804a10c
 8048742:	68 40 00 00 00       	push   $0x40
 8048747:	e9 60 ff ff ff       	jmp    80486ac <_init+0x30>

0804874c <_IO_getc@plt>:
 804874c:	ff 25 10 a1 04 08    	jmp    *0x804a110
 8048752:	68 48 00 00 00       	push   $0x48
 8048757:	e9 50 ff ff ff       	jmp    80486ac <_init+0x30>

0804875c <fdopen@plt>:
 804875c:	ff 25 14 a1 04 08    	jmp    *0x804a114
 8048762:	68 50 00 00 00       	push   $0x50
 8048767:	e9 40 ff ff ff       	jmp    80486ac <_init+0x30>

0804876c <mkstemp@plt>:
 804876c:	ff 25 18 a1 04 08    	jmp    *0x804a118
 8048772:	68 58 00 00 00       	push   $0x58
 8048777:	e9 30 ff ff ff       	jmp    80486ac <_init+0x30>

0804877c <__ctype_b_loc@plt>:
 804877c:	ff 25 1c a1 04 08    	jmp    *0x804a11c
 8048782:	68 60 00 00 00       	push   $0x60
 8048787:	e9 20 ff ff ff       	jmp    80486ac <_init+0x30>

0804878c <fclose@plt>:
 804878c:	ff 25 20 a1 04 08    	jmp    *0x804a120
 8048792:	68 68 00 00 00       	push   $0x68
 8048797:	e9 10 ff ff ff       	jmp    80486ac <_init+0x30>

0804879c <getopt@plt>:
 804879c:	ff 25 24 a1 04 08    	jmp    *0x804a124
 80487a2:	68 70 00 00 00       	push   $0x70
 80487a7:	e9 00 ff ff ff       	jmp    80486ac <_init+0x30>

080487ac <fopen@plt>:
 80487ac:	ff 25 28 a1 04 08    	jmp    *0x804a128
 80487b2:	68 78 00 00 00       	push   $0x78
 80487b7:	e9 f0 fe ff ff       	jmp    80486ac <_init+0x30>

080487bc <alarm@plt>:
 80487bc:	ff 25 2c a1 04 08    	jmp    *0x804a12c
 80487c2:	68 80 00 00 00       	push   $0x80
 80487c7:	e9 e0 fe ff ff       	jmp    80486ac <_init+0x30>

080487cc <unlink@plt>:
 80487cc:	ff 25 30 a1 04 08    	jmp    *0x804a130
 80487d2:	68 88 00 00 00       	push   $0x88
 80487d7:	e9 d0 fe ff ff       	jmp    80486ac <_init+0x30>

080487dc <strcpy@plt>:
 80487dc:	ff 25 34 a1 04 08    	jmp    *0x804a134
 80487e2:	68 90 00 00 00       	push   $0x90
 80487e7:	e9 c0 fe ff ff       	jmp    80486ac <_init+0x30>

080487ec <printf@plt>:
 80487ec:	ff 25 38 a1 04 08    	jmp    *0x804a138
 80487f2:	68 98 00 00 00       	push   $0x98
 80487f7:	e9 b0 fe ff ff       	jmp    80486ac <_init+0x30>

080487fc <srandom@plt>:
 80487fc:	ff 25 3c a1 04 08    	jmp    *0x804a13c
 8048802:	68 a0 00 00 00       	push   $0xa0
 8048807:	e9 a0 fe ff ff       	jmp    80486ac <_init+0x30>

0804880c <close@plt>:
 804880c:	ff 25 40 a1 04 08    	jmp    *0x804a140
 8048812:	68 a8 00 00 00       	push   $0xa8
 8048817:	e9 90 fe ff ff       	jmp    80486ac <_init+0x30>

0804881c <fwrite@plt>:
 804881c:	ff 25 44 a1 04 08    	jmp    *0x804a144
 8048822:	68 b0 00 00 00       	push   $0xb0
 8048827:	e9 80 fe ff ff       	jmp    80486ac <_init+0x30>

0804882c <fprintf@plt>:
 804882c:	ff 25 48 a1 04 08    	jmp    *0x804a148
 8048832:	68 b8 00 00 00       	push   $0xb8
 8048837:	e9 70 fe ff ff       	jmp    80486ac <_init+0x30>

0804883c <cuserid@plt>:
 804883c:	ff 25 4c a1 04 08    	jmp    *0x804a14c
 8048842:	68 c0 00 00 00       	push   $0xc0
 8048847:	e9 60 fe ff ff       	jmp    80486ac <_init+0x30>

0804884c <fputc@plt>:
 804884c:	ff 25 50 a1 04 08    	jmp    *0x804a150
 8048852:	68 c8 00 00 00       	push   $0xc8
 8048857:	e9 50 fe ff ff       	jmp    80486ac <_init+0x30>

0804885c <puts@plt>:
 804885c:	ff 25 54 a1 04 08    	jmp    *0x804a154
 8048862:	68 d0 00 00 00       	push   $0xd0
 8048867:	e9 40 fe ff ff       	jmp    80486ac <_init+0x30>

0804886c <rand@plt>:
 804886c:	ff 25 58 a1 04 08    	jmp    *0x804a158
 8048872:	68 d8 00 00 00       	push   $0xd8
 8048877:	e9 30 fe ff ff       	jmp    80486ac <_init+0x30>

0804887c <__strdup@plt>:
 804887c:	ff 25 5c a1 04 08    	jmp    *0x804a15c
 8048882:	68 e0 00 00 00       	push   $0xe0
 8048887:	e9 20 fe ff ff       	jmp    80486ac <_init+0x30>

0804888c <exit@plt>:
 804888c:	ff 25 60 a1 04 08    	jmp    *0x804a160
 8048892:	68 e8 00 00 00       	push   $0xe8
 8048897:	e9 10 fe ff ff       	jmp    80486ac <_init+0x30>

Disassembly of section .text:

080488a0 <_start>:
 80488a0:	31 ed                	xor    %ebp,%ebp
 80488a2:	5e                   	pop    %esi
 80488a3:	89 e1                	mov    %esp,%ecx
 80488a5:	83 e4 f0             	and    $0xfffffff0,%esp
 80488a8:	50                   	push   %eax
 80488a9:	54                   	push   %esp
 80488aa:	52                   	push   %edx
 80488ab:	68 60 95 04 08       	push   $0x8049560
 80488b0:	68 70 95 04 08       	push   $0x8049570
 80488b5:	51                   	push   %ecx
 80488b6:	56                   	push   %esi
 80488b7:	68 f0 91 04 08       	push   $0x80491f0
 80488bc:	e8 7b fe ff ff       	call   804873c <__libc_start_main@plt>
 80488c1:	f4                   	hlt    
 80488c2:	90                   	nop
 80488c3:	90                   	nop
 80488c4:	90                   	nop
 80488c5:	90                   	nop
 80488c6:	90                   	nop
 80488c7:	90                   	nop
 80488c8:	90                   	nop
 80488c9:	90                   	nop
 80488ca:	90                   	nop
 80488cb:	90                   	nop
 80488cc:	90                   	nop
 80488cd:	90                   	nop
 80488ce:	90                   	nop
 80488cf:	90                   	nop

080488d0 <__do_global_dtors_aux>:
 80488d0:	55                   	push   %ebp
 80488d1:	89 e5                	mov    %esp,%ebp
 80488d3:	53                   	push   %ebx
 80488d4:	83 ec 04             	sub    $0x4,%esp
 80488d7:	80 3d a8 a1 04 08 00 	cmpb   $0x0,0x804a1a8
 80488de:	75 3f                	jne    804891f <__do_global_dtors_aux+0x4f>
 80488e0:	a1 ac a1 04 08       	mov    0x804a1ac,%eax
 80488e5:	bb 0c a0 04 08       	mov    $0x804a00c,%ebx
 80488ea:	81 eb 08 a0 04 08    	sub    $0x804a008,%ebx
 80488f0:	c1 fb 02             	sar    $0x2,%ebx
 80488f3:	83 eb 01             	sub    $0x1,%ebx
 80488f6:	39 d8                	cmp    %ebx,%eax
 80488f8:	73 1e                	jae    8048918 <__do_global_dtors_aux+0x48>
 80488fa:	8d b6 00 00 00 00    	lea    0x0(%esi),%esi
 8048900:	83 c0 01             	add    $0x1,%eax
 8048903:	a3 ac a1 04 08       	mov    %eax,0x804a1ac
 8048908:	ff 14 85 08 a0 04 08 	call   *0x804a008(,%eax,4)
 804890f:	a1 ac a1 04 08       	mov    0x804a1ac,%eax
 8048914:	39 d8                	cmp    %ebx,%eax
 8048916:	72 e8                	jb     8048900 <__do_global_dtors_aux+0x30>
 8048918:	c6 05 a8 a1 04 08 01 	movb   $0x1,0x804a1a8
 804891f:	83 c4 04             	add    $0x4,%esp
 8048922:	5b                   	pop    %ebx
 8048923:	5d                   	pop    %ebp
 8048924:	c3                   	ret    
 8048925:	8d 74 26 00          	lea    0x0(%esi,%eiz,1),%esi
 8048929:	8d bc 27 00 00 00 00 	lea    0x0(%edi,%eiz,1),%edi

08048930 <frame_dummy>:
 8048930:	55                   	push   %ebp
 8048931:	89 e5                	mov    %esp,%ebp
 8048933:	83 ec 18             	sub    $0x18,%esp
 8048936:	a1 10 a0 04 08       	mov    0x804a010,%eax
 804893b:	85 c0                	test   %eax,%eax
 804893d:	74 12                	je     8048951 <frame_dummy+0x21>
 804893f:	b8 00 00 00 00       	mov    $0x0,%eax
 8048944:	85 c0                	test   %eax,%eax
 8048946:	74 09                	je     8048951 <frame_dummy+0x21>
 8048948:	c7 04 24 10 a0 04 08 	movl   $0x804a010,(%esp)
 804894f:	ff d0                	call   *%eax
 8048951:	c9                   	leave  
 8048952:	c3                   	ret    
 8048953:	90                   	nop
 8048954:	90                   	nop
 8048955:	90                   	nop
 8048956:	90                   	nop
 8048957:	90                   	nop
 8048958:	90                   	nop
 8048959:	90                   	nop
 804895a:	90                   	nop
 804895b:	90                   	nop
 804895c:	90                   	nop
 804895d:	90                   	nop
 804895e:	90                   	nop
 804895f:	90                   	nop

08048960 <entry_check>:
 8048960:	55                   	push   %ebp
 8048961:	89 e5                	mov    %esp,%ebp
 8048963:	8b 45 08             	mov    0x8(%ebp),%eax
 8048966:	5d                   	pop    %ebp
 8048967:	a3 6c a1 04 08       	mov    %eax,0x804a16c
 804896c:	c3                   	ret    
 804896d:	8d 76 00             	lea    0x0(%esi),%esi

08048970 <usage>:
 8048970:	55                   	push   %ebp
 8048971:	89 e5                	mov    %esp,%ebp
 8048973:	83 ec 18             	sub    $0x18,%esp
 8048976:	89 44 24 04          	mov    %eax,0x4(%esp)
 804897a:	c7 04 24 24 96 04 08 	movl   $0x8049624,(%esp)
 8048981:	e8 66 fe ff ff       	call   80487ec <printf@plt>
 8048986:	c7 04 24 98 99 04 08 	movl   $0x8049998,(%esp)
 804898d:	e8 ca fe ff ff       	call   804885c <puts@plt>
 8048992:	c7 04 24 b6 99 04 08 	movl   $0x80499b6,(%esp)
 8048999:	e8 be fe ff ff       	call   804885c <puts@plt>
 804899e:	c7 04 24 48 96 04 08 	movl   $0x8049648,(%esp)
 80489a5:	e8 b2 fe ff ff       	call   804885c <puts@plt>
 80489aa:	c7 04 24 70 96 04 08 	movl   $0x8049670,(%esp)
 80489b1:	e8 a6 fe ff ff       	call   804885c <puts@plt>
 80489b6:	c7 04 24 00 00 00 00 	movl   $0x0,(%esp)
 80489bd:	e8 ca fe ff ff       	call   804888c <exit@plt>
 80489c2:	8d b4 26 00 00 00 00 	lea    0x0(%esi,%eiz,1),%esi
 80489c9:	8d bc 27 00 00 00 00 	lea    0x0(%edi,%eiz,1),%edi

080489d0 <illegalhandler>:
 80489d0:	55                   	push   %ebp
 80489d1:	89 e5                	mov    %esp,%ebp
 80489d3:	83 ec 18             	sub    $0x18,%esp
 80489d6:	c7 04 24 94 96 04 08 	movl   $0x8049694,(%esp)
 80489dd:	e8 7a fe ff ff       	call   804885c <puts@plt>
 80489e2:	c7 04 24 cd 99 04 08 	movl   $0x80499cd,(%esp)
 80489e9:	e8 6e fe ff ff       	call   804885c <puts@plt>
 80489ee:	c7 04 24 00 00 00 00 	movl   $0x0,(%esp)
 80489f5:	e8 92 fe ff ff       	call   804888c <exit@plt>
 80489fa:	8d b6 00 00 00 00    	lea    0x0(%esi),%esi

08048a00 <alarmhandler>:
 8048a00:	55                   	push   %ebp
 8048a01:	89 e5                	mov    %esp,%ebp
 8048a03:	83 ec 18             	sub    $0x18,%esp
 8048a06:	a1 70 a1 04 08       	mov    0x804a170,%eax
 8048a0b:	c7 04 24 c0 96 04 08 	movl   $0x80496c0,(%esp)
 8048a12:	89 44 24 04          	mov    %eax,0x4(%esp)
 8048a16:	e8 d1 fd ff ff       	call   80487ec <printf@plt>
 8048a1b:	c7 04 24 cd 99 04 08 	movl   $0x80499cd,(%esp)
 8048a22:	e8 35 fe ff ff       	call   804885c <puts@plt>
 8048a27:	c7 04 24 00 00 00 00 	movl   $0x0,(%esp)
 8048a2e:	e8 59 fe ff ff       	call   804888c <exit@plt>
 8048a33:	8d b6 00 00 00 00    	lea    0x0(%esi),%esi
 8048a39:	8d bc 27 00 00 00 00 	lea    0x0(%edi,%eiz,1),%edi

08048a40 <seghandler>:
 8048a40:	55                   	push   %ebp
 8048a41:	89 e5                	mov    %esp,%ebp
 8048a43:	83 ec 18             	sub    $0x18,%esp
 8048a46:	c7 04 24 f4 96 04 08 	movl   $0x80496f4,(%esp)
 8048a4d:	e8 0a fe ff ff       	call   804885c <puts@plt>
 8048a52:	c7 04 24 cd 99 04 08 	movl   $0x80499cd,(%esp)
 8048a59:	e8 fe fd ff ff       	call   804885c <puts@plt>
 8048a5e:	c7 04 24 00 00 00 00 	movl   $0x0,(%esp)
 8048a65:	e8 22 fe ff ff       	call   804888c <exit@plt>
 8048a6a:	8d b6 00 00 00 00    	lea    0x0(%esi),%esi

08048a70 <bushandler>:
 8048a70:	55                   	push   %ebp
 8048a71:	89 e5                	mov    %esp,%ebp
 8048a73:	83 ec 18             	sub    $0x18,%esp
 8048a76:	c7 04 24 1c 97 04 08 	movl   $0x804971c,(%esp)
 8048a7d:	e8 da fd ff ff       	call   804885c <puts@plt>
 8048a82:	c7 04 24 cd 99 04 08 	movl   $0x80499cd,(%esp)
 8048a89:	e8 ce fd ff ff       	call   804885c <puts@plt>
 8048a8e:	c7 04 24 00 00 00 00 	movl   $0x0,(%esp)
 8048a95:	e8 f2 fd ff ff       	call   804888c <exit@plt>
 8048a9a:	8d b6 00 00 00 00    	lea    0x0(%esi),%esi

08048aa0 <validate>:
 8048aa0:	55                   	push   %ebp
 8048aa1:	89 e5                	mov    %esp,%ebp
 8048aa3:	81 ec 68 01 00 00    	sub    $0x168,%esp
 8048aa9:	8b 0d d0 a1 04 08    	mov    0x804a1d0,%ecx
 8048aaf:	89 5d f4             	mov    %ebx,-0xc(%ebp)
 8048ab2:	8b 5d 08             	mov    0x8(%ebp),%ebx
 8048ab5:	89 75 f8             	mov    %esi,-0x8(%ebp)
 8048ab8:	89 7d fc             	mov    %edi,-0x4(%ebp)
 8048abb:	85 c9                	test   %ecx,%ecx
 8048abd:	0f 84 8d 02 00 00    	je     8048d50 <validate+0x2b0>
 8048ac3:	83 fb 04             	cmp    $0x4,%ebx
 8048ac6:	0f 87 14 02 00 00    	ja     8048ce0 <validate+0x240>
 8048acc:	3b 1d 6c a1 04 08    	cmp    0x804a16c,%ebx
 8048ad2:	0f 85 c8 01 00 00    	jne    8048ca0 <validate+0x200>
 8048ad8:	8b 04 9d 74 a1 04 08 	mov    0x804a174(,%ebx,4),%eax
 8048adf:	c7 05 d8 a1 04 08 01 	movl   $0x1,0x804a1d8
 8048ae6:	00 00 00 
 8048ae9:	83 e8 01             	sub    $0x1,%eax
 8048aec:	85 c0                	test   %eax,%eax
 8048aee:	89 04 9d 74 a1 04 08 	mov    %eax,0x804a174(,%ebx,4)
 8048af5:	0f 8f 05 02 00 00    	jg     8048d00 <validate+0x260>
 8048afb:	8b 15 d4 a1 04 08    	mov    0x804a1d4,%edx
 8048b01:	85 d2                	test   %edx,%edx
 8048b03:	0f 85 17 02 00 00    	jne    8048d20 <validate+0x280>
 8048b09:	a1 68 a1 04 08       	mov    0x804a168,%eax
 8048b0e:	85 c0                	test   %eax,%eax
 8048b10:	0f 84 aa 01 00 00    	je     8048cc0 <validate+0x220>
 8048b16:	8d 7d cb             	lea    -0x35(%ebp),%edi
 8048b19:	c7 45 db 00 00 00 00 	movl   $0x0,-0x25(%ebp)
 8048b20:	c7 45 cb 2f 74 6d 70 	movl   $0x706d742f,-0x35(%ebp)
 8048b27:	c7 45 cf 2f 73 75 62 	movl   $0x6275732f,-0x31(%ebp)
 8048b2e:	c7 45 d3 6d 69 74 58 	movl   $0x5874696d,-0x2d(%ebp)
 8048b35:	c7 45 d7 58 58 58 58 	movl   $0x58585858,-0x29(%ebp)
 8048b3c:	66 c7 45 db 58 00    	movw   $0x58,-0x25(%ebp)
 8048b42:	89 3c 24             	mov    %edi,(%esp)
 8048b45:	e8 22 fc ff ff       	call   804876c <mkstemp@plt>
 8048b4a:	c7 44 24 04 f4 99 04 	movl   $0x80499f4,0x4(%esp)
 8048b51:	08 
 8048b52:	89 85 c4 fe ff ff    	mov    %eax,-0x13c(%ebp)
 8048b58:	89 04 24             	mov    %eax,(%esp)
 8048b5b:	e8 fc fb ff ff       	call   804875c <fdopen@plt>
 8048b60:	85 c0                	test   %eax,%eax
 8048b62:	89 c6                	mov    %eax,%esi
 8048b64:	0f 84 17 02 00 00    	je     8048d81 <validate+0x2e1>
 8048b6a:	89 44 24 0c          	mov    %eax,0xc(%esp)
 8048b6e:	c7 44 24 08 1b 00 00 	movl   $0x1b,0x8(%esp)
 8048b75:	00 
 8048b76:	c7 44 24 04 01 00 00 	movl   $0x1,0x4(%esp)
 8048b7d:	00 
 8048b7e:	c7 04 24 f6 99 04 08 	movl   $0x80499f6,(%esp)
 8048b85:	e8 92 fc ff ff       	call   804881c <fwrite@plt>
 8048b8a:	89 74 24 04          	mov    %esi,0x4(%esp)
 8048b8e:	c7 04 24 0a 00 00 00 	movl   $0xa,(%esp)
 8048b95:	e8 b2 fc ff ff       	call   804884c <fputc@plt>
 8048b9a:	c7 04 24 00 00 00 00 	movl   $0x0,(%esp)
 8048ba1:	e8 96 fc ff ff       	call   804883c <cuserid@plt>
 8048ba6:	85 c0                	test   %eax,%eax
 8048ba8:	0f 84 ba 01 00 00    	je     8048d68 <validate+0x2c8>
 8048bae:	8d 55 df             	lea    -0x21(%ebp),%edx
 8048bb1:	89 14 24             	mov    %edx,(%esp)
 8048bb4:	89 95 c0 fe ff ff    	mov    %edx,-0x140(%ebp)
 8048bba:	89 44 24 04          	mov    %eax,0x4(%esp)
 8048bbe:	e8 19 fc ff ff       	call   80487dc <strcpy@plt>
 8048bc3:	8b 95 c0 fe ff ff    	mov    -0x140(%ebp),%edx
 8048bc9:	89 54 24 08          	mov    %edx,0x8(%esp)
 8048bcd:	c7 44 24 04 12 9a 04 	movl   $0x8049a12,0x4(%esp)
 8048bd4:	08 
 8048bd5:	89 34 24             	mov    %esi,(%esp)
 8048bd8:	e8 4f fc ff ff       	call   804882c <fprintf@plt>
 8048bdd:	a1 cc a1 04 08       	mov    0x804a1cc,%eax
 8048be2:	89 5c 24 10          	mov    %ebx,0x10(%esp)
 8048be6:	8d 9d cb fe ff ff    	lea    -0x135(%ebp),%ebx
 8048bec:	c7 44 24 1c 00 00 00 	movl   $0x0,0x1c(%esp)
 8048bf3:	00 
 8048bf4:	c7 44 24 18 00 a2 04 	movl   $0x804a200,0x18(%esp)
 8048bfb:	08 
 8048bfc:	89 44 24 14          	mov    %eax,0x14(%esp)
 8048c00:	a1 d0 a1 04 08       	mov    0x804a1d0,%eax
 8048c05:	c7 44 24 08 e6 27 00 	movl   $0x27e6,0x8(%esp)
 8048c0c:	00 
 8048c0d:	c7 44 24 04 00 98 04 	movl   $0x8049800,0x4(%esp)
 8048c14:	08 
 8048c15:	89 34 24             	mov    %esi,(%esp)
 8048c18:	89 44 24 0c          	mov    %eax,0xc(%esp)
 8048c1c:	e8 0b fc ff ff       	call   804882c <fprintf@plt>
 8048c21:	89 34 24             	mov    %esi,(%esp)
 8048c24:	e8 63 fb ff ff       	call   804878c <fclose@plt>
 8048c29:	c7 44 24 14 20 9a 04 	movl   $0x8049a20,0x14(%esp)
 8048c30:	08 
 8048c31:	c7 44 24 10 35 9a 04 	movl   $0x8049a35,0x10(%esp)
 8048c38:	08 
 8048c39:	c7 44 24 0c 3a 9a 04 	movl   $0x8049a3a,0xc(%esp)
 8048c40:	08 
 8048c41:	89 7c 24 08          	mov    %edi,0x8(%esp)
 8048c45:	c7 44 24 04 51 9a 04 	movl   $0x8049a51,0x4(%esp)
 8048c4c:	08 
 8048c4d:	89 1c 24             	mov    %ebx,(%esp)
 8048c50:	e8 67 fa ff ff       	call   80486bc <sprintf@plt>
 8048c55:	89 1c 24             	mov    %ebx,(%esp)
 8048c58:	e8 bf fa ff ff       	call   804871c <system@plt>
 8048c5d:	85 c0                	test   %eax,%eax
 8048c5f:	0f 85 d3 00 00 00    	jne    8048d38 <validate+0x298>
 8048c65:	c7 04 24 64 9a 04 08 	movl   $0x8049a64,(%esp)
 8048c6c:	e8 eb fb ff ff       	call   804885c <puts@plt>
 8048c71:	c7 04 24 20 98 04 08 	movl   $0x8049820,(%esp)
 8048c78:	e8 df fb ff ff       	call   804885c <puts@plt>
 8048c7d:	89 3c 24             	mov    %edi,(%esp)
 8048c80:	e8 47 fb ff ff       	call   80487cc <unlink@plt>
 8048c85:	8b 85 c4 fe ff ff    	mov    -0x13c(%ebp),%eax
 8048c8b:	89 04 24             	mov    %eax,(%esp)
 8048c8e:	e8 79 fb ff ff       	call   804880c <close@plt>
 8048c93:	8b 5d f4             	mov    -0xc(%ebp),%ebx
 8048c96:	8b 75 f8             	mov    -0x8(%ebp),%esi
 8048c99:	8b 7d fc             	mov    -0x4(%ebp),%edi
 8048c9c:	89 ec                	mov    %ebp,%esp
 8048c9e:	5d                   	pop    %ebp
 8048c9f:	c3                   	ret    
 8048ca0:	c7 04 24 90 97 04 08 	movl   $0x8049790,(%esp)
 8048ca7:	e8 b0 fb ff ff       	call   804885c <puts@plt>
 8048cac:	8b 5d f4             	mov    -0xc(%ebp),%ebx
 8048caf:	8b 75 f8             	mov    -0x8(%ebp),%esi
 8048cb2:	8b 7d fc             	mov    -0x4(%ebp),%edi
 8048cb5:	89 ec                	mov    %ebp,%esp
 8048cb7:	5d                   	pop    %ebp
 8048cb8:	c3                   	ret    
 8048cb9:	8d b4 26 00 00 00 00 	lea    0x0(%esi,%eiz,1),%esi
 8048cc0:	c7 04 24 90 98 04 08 	movl   $0x8049890,(%esp)
 8048cc7:	e8 90 fb ff ff       	call   804885c <puts@plt>
 8048ccc:	8b 5d f4             	mov    -0xc(%ebp),%ebx
 8048ccf:	8b 75 f8             	mov    -0x8(%ebp),%esi
 8048cd2:	8b 7d fc             	mov    -0x4(%ebp),%edi
 8048cd5:	89 ec                	mov    %ebp,%esp
 8048cd7:	5d                   	pop    %ebp
 8048cd8:	c3                   	ret    
 8048cd9:	8d b4 26 00 00 00 00 	lea    0x0(%esi,%eiz,1),%esi
 8048ce0:	c7 04 24 68 97 04 08 	movl   $0x8049768,(%esp)
 8048ce7:	e8 70 fb ff ff       	call   804885c <puts@plt>
 8048cec:	8b 5d f4             	mov    -0xc(%ebp),%ebx
 8048cef:	8b 75 f8             	mov    -0x8(%ebp),%esi
 8048cf2:	8b 7d fc             	mov    -0x4(%ebp),%edi
 8048cf5:	89 ec                	mov    %ebp,%esp
 8048cf7:	5d                   	pop    %ebp
 8048cf8:	c3                   	ret    
 8048cf9:	8d b4 26 00 00 00 00 	lea    0x0(%esi,%eiz,1),%esi
 8048d00:	c7 04 24 e3 99 04 08 	movl   $0x80499e3,(%esp)
 8048d07:	e8 50 fb ff ff       	call   804885c <puts@plt>
 8048d0c:	8b 5d f4             	mov    -0xc(%ebp),%ebx
 8048d0f:	8b 75 f8             	mov    -0x8(%ebp),%esi
 8048d12:	8b 7d fc             	mov    -0x4(%ebp),%edi
 8048d15:	89 ec                	mov    %ebp,%esp
 8048d17:	5d                   	pop    %ebp
 8048d18:	c3                   	ret    
 8048d19:	8d b4 26 00 00 00 00 	lea    0x0(%esi,%eiz,1),%esi
 8048d20:	c7 04 24 ee 99 04 08 	movl   $0x80499ee,(%esp)
 8048d27:	e8 30 fb ff ff       	call   804885c <puts@plt>
 8048d2c:	e9 7b ff ff ff       	jmp    8048cac <validate+0x20c>
 8048d31:	8d b4 26 00 00 00 00 	lea    0x0(%esi,%eiz,1),%esi
 8048d38:	c7 04 24 50 98 04 08 	movl   $0x8049850,(%esp)
 8048d3f:	e8 18 fb ff ff       	call   804885c <puts@plt>
 8048d44:	e9 34 ff ff ff       	jmp    8048c7d <validate+0x1dd>
 8048d49:	8d b4 26 00 00 00 00 	lea    0x0(%esi,%eiz,1),%esi
 8048d50:	c7 04 24 3c 97 04 08 	movl   $0x804973c,(%esp)
 8048d57:	e8 00 fb ff ff       	call   804885c <puts@plt>
 8048d5c:	e9 4b ff ff ff       	jmp    8048cac <validate+0x20c>
 8048d61:	8d b4 26 00 00 00 00 	lea    0x0(%esi,%eiz,1),%esi
 8048d68:	c7 45 df 6e 6f 62 6f 	movl   $0x6f626f6e,-0x21(%ebp)
 8048d6f:	8d 55 df             	lea    -0x21(%ebp),%edx
 8048d72:	66 c7 45 e3 64 79    	movw   $0x7964,-0x1d(%ebp)
 8048d78:	c6 45 e5 00          	movb   $0x0,-0x1b(%ebp)
 8048d7c:	e9 48 fe ff ff       	jmp    8048bc9 <validate+0x129>
 8048d81:	c7 04 24 cc 97 04 08 	movl   $0x80497cc,(%esp)
 8048d88:	e8 5f fa ff ff       	call   80487ec <printf@plt>
 8048d8d:	c7 04 24 01 00 00 00 	movl   $0x1,(%esp)
 8048d94:	e8 f3 fa ff ff       	call   804888c <exit@plt>
 8048d99:	8d b4 26 00 00 00 00 	lea    0x0(%esi,%eiz,1),%esi

08048da0 <bang>:
 8048da0:	55                   	push   %ebp
 8048da1:	89 e5                	mov    %esp,%ebp
 8048da3:	83 ec 18             	sub    $0x18,%esp
 8048da6:	a1 dc a1 04 08       	mov    0x804a1dc,%eax
 8048dab:	3b 05 cc a1 04 08    	cmp    0x804a1cc,%eax
 8048db1:	c7 05 6c a1 04 08 02 	movl   $0x2,0x804a16c
 8048db8:	00 00 00 
 8048dbb:	74 23                	je     8048de0 <bang+0x40>
 8048dbd:	89 44 24 04          	mov    %eax,0x4(%esp)
 8048dc1:	c7 04 24 6e 9a 04 08 	movl   $0x8049a6e,(%esp)
 8048dc8:	e8 1f fa ff ff       	call   80487ec <printf@plt>
 8048dcd:	c7 04 24 00 00 00 00 	movl   $0x0,(%esp)
 8048dd4:	e8 b3 fa ff ff       	call   804888c <exit@plt>
 8048dd9:	8d b4 26 00 00 00 00 	lea    0x0(%esi,%eiz,1),%esi
 8048de0:	89 44 24 04          	mov    %eax,0x4(%esp)
 8048de4:	c7 04 24 dc 98 04 08 	movl   $0x80498dc,(%esp)
 8048deb:	e8 fc f9 ff ff       	call   80487ec <printf@plt>
 8048df0:	c7 04 24 02 00 00 00 	movl   $0x2,(%esp)
 8048df7:	e8 a4 fc ff ff       	call   8048aa0 <validate>
 8048dfc:	eb cf                	jmp    8048dcd <bang+0x2d>
 8048dfe:	66 90                	xchg   %ax,%ax

08048e00 <fizz>:
 8048e00:	55                   	push   %ebp
 8048e01:	89 e5                	mov    %esp,%ebp
 8048e03:	83 ec 18             	sub    $0x18,%esp
 8048e06:	8b 45 08             	mov    0x8(%ebp),%eax
 8048e09:	3b 05 cc a1 04 08    	cmp    0x804a1cc,%eax
 8048e0f:	c7 05 6c a1 04 08 01 	movl   $0x1,0x804a16c
 8048e16:	00 00 00 
 8048e19:	74 1d                	je     8048e38 <fizz+0x38>
 8048e1b:	89 44 24 04          	mov    %eax,0x4(%esp)
 8048e1f:	c7 04 24 04 99 04 08 	movl   $0x8049904,(%esp)
 8048e26:	e8 c1 f9 ff ff       	call   80487ec <printf@plt>
 8048e2b:	c7 04 24 00 00 00 00 	movl   $0x0,(%esp)
 8048e32:	e8 55 fa ff ff       	call   804888c <exit@plt>
 8048e37:	90                   	nop
 8048e38:	89 44 24 04          	mov    %eax,0x4(%esp)
 8048e3c:	c7 04 24 8c 9a 04 08 	movl   $0x8049a8c,(%esp)
 8048e43:	e8 a4 f9 ff ff       	call   80487ec <printf@plt>
 8048e48:	c7 04 24 01 00 00 00 	movl   $0x1,(%esp)
 8048e4f:	e8 4c fc ff ff       	call   8048aa0 <validate>
 8048e54:	eb d5                	jmp    8048e2b <fizz+0x2b>
 8048e56:	8d 76 00             	lea    0x0(%esi),%esi
 8048e59:	8d bc 27 00 00 00 00 	lea    0x0(%edi,%eiz,1),%edi

08048e60 <smoke>:
 8048e60:	55                   	push   %ebp
 8048e61:	89 e5                	mov    %esp,%ebp
 8048e63:	83 ec 18             	sub    $0x18,%esp
 8048e66:	c7 04 24 aa 9a 04 08 	movl   $0x8049aaa,(%esp)
 8048e6d:	c7 05 6c a1 04 08 00 	movl   $0x0,0x804a16c
 8048e74:	00 00 00 
 8048e77:	e8 e0 f9 ff ff       	call   804885c <puts@plt>
 8048e7c:	c7 04 24 00 00 00 00 	movl   $0x0,(%esp)
 8048e83:	e8 18 fc ff ff       	call   8048aa0 <validate>
 8048e88:	c7 04 24 00 00 00 00 	movl   $0x0,(%esp)
 8048e8f:	e8 f8 f9 ff ff       	call   804888c <exit@plt>
 8048e94:	8d b6 00 00 00 00    	lea    0x0(%esi),%esi
 8048e9a:	8d bf 00 00 00 00    	lea    0x0(%edi),%edi

08048ea0 <Gets>:
 8048ea0:	55                   	push   %ebp
 8048ea1:	89 e5                	mov    %esp,%ebp
 8048ea3:	57                   	push   %edi
 8048ea4:	56                   	push   %esi
 8048ea5:	53                   	push   %ebx
 8048ea6:	83 ec 2c             	sub    $0x2c,%esp
 8048ea9:	8b 1d c8 a1 04 08    	mov    0x804a1c8,%ebx
 8048eaf:	8b 7d 08             	mov    0x8(%ebp),%edi
 8048eb2:	c7 05 e0 a1 04 08 00 	movl   $0x0,0x804a1e0
 8048eb9:	00 00 00 
 8048ebc:	85 db                	test   %ebx,%ebx
 8048ebe:	89 fe                	mov    %edi,%esi
 8048ec0:	0f 84 b9 00 00 00    	je     8048f7f <Gets+0xdf>
 8048ec6:	c7 45 e4 00 00 00 00 	movl   $0x0,-0x1c(%ebp)
 8048ecd:	89 7d e0             	mov    %edi,-0x20(%ebp)
 8048ed0:	be 01 00 00 00       	mov    $0x1,%esi
 8048ed5:	8d 76 00             	lea    0x0(%esi),%esi
 8048ed8:	a1 c0 a1 04 08       	mov    0x804a1c0,%eax
 8048edd:	89 04 24             	mov    %eax,(%esp)
 8048ee0:	e8 67 f8 ff ff       	call   804874c <_IO_getc@plt>
 8048ee5:	83 f8 ff             	cmp    $0xffffffff,%eax
 8048ee8:	89 c3                	mov    %eax,%ebx
 8048eea:	0f 84 c0 00 00 00    	je     8048fb0 <Gets+0x110>
 8048ef0:	83 f8 0a             	cmp    $0xa,%eax
 8048ef3:	0f 84 b7 00 00 00    	je     8048fb0 <Gets+0x110>
 8048ef9:	e8 7e f8 ff ff       	call   804877c <__ctype_b_loc@plt>
 8048efe:	8b 00                	mov    (%eax),%eax
 8048f00:	f6 44 58 01 10       	testb  $0x10,0x1(%eax,%ebx,2)
 8048f05:	74 d1                	je     8048ed8 <Gets+0x38>
 8048f07:	8d 43 d0             	lea    -0x30(%ebx),%eax
 8048f0a:	83 f8 09             	cmp    $0x9,%eax
 8048f0d:	76 0f                	jbe    8048f1e <Gets+0x7e>
 8048f0f:	8d 53 bf             	lea    -0x41(%ebx),%edx
 8048f12:	8d 43 c9             	lea    -0x37(%ebx),%eax
 8048f15:	83 eb 57             	sub    $0x57,%ebx
 8048f18:	83 fa 05             	cmp    $0x5,%edx
 8048f1b:	0f 47 c3             	cmova  %ebx,%eax
 8048f1e:	85 f6                	test   %esi,%esi
 8048f20:	0f 84 92 00 00 00    	je     8048fb8 <Gets+0x118>
 8048f26:	89 45 e4             	mov    %eax,-0x1c(%ebp)
 8048f29:	31 f6                	xor    %esi,%esi
 8048f2b:	eb ab                	jmp    8048ed8 <Gets+0x38>
 8048f2d:	8d 76 00             	lea    0x0(%esi),%esi
 8048f30:	83 f8 0a             	cmp    $0xa,%eax
 8048f33:	74 5c                	je     8048f91 <Gets+0xf1>
 8048f35:	89 c1                	mov    %eax,%ecx
 8048f37:	88 06                	mov    %al,(%esi)
 8048f39:	a1 e0 a1 04 08       	mov    0x804a1e0,%eax
 8048f3e:	3d ff 03 00 00       	cmp    $0x3ff,%eax
 8048f43:	7f 37                	jg     8048f7c <Gets+0xdc>
 8048f45:	89 cb                	mov    %ecx,%ebx
 8048f47:	83 e1 0f             	and    $0xf,%ecx
 8048f4a:	c0 eb 04             	shr    $0x4,%bl
 8048f4d:	0f b6 89 bc 9b 04 08 	movzbl 0x8049bbc(%ecx),%ecx
 8048f54:	0f be db             	movsbl %bl,%ebx
 8048f57:	0f b6 9b bc 9b 04 08 	movzbl 0x8049bbc(%ebx),%ebx
 8048f5e:	8d 14 40             	lea    (%eax,%eax,2),%edx
 8048f61:	83 c0 01             	add    $0x1,%eax
 8048f64:	c6 82 02 a2 04 08 20 	movb   $0x20,0x804a202(%edx)
 8048f6b:	88 8a 01 a2 04 08    	mov    %cl,0x804a201(%edx)
 8048f71:	a3 e0 a1 04 08       	mov    %eax,0x804a1e0
 8048f76:	88 9a 00 a2 04 08    	mov    %bl,0x804a200(%edx)
 8048f7c:	83 c6 01             	add    $0x1,%esi
 8048f7f:	a1 c0 a1 04 08       	mov    0x804a1c0,%eax
 8048f84:	89 04 24             	mov    %eax,(%esp)
 8048f87:	e8 c0 f7 ff ff       	call   804874c <_IO_getc@plt>
 8048f8c:	83 f8 ff             	cmp    $0xffffffff,%eax
 8048f8f:	75 9f                	jne    8048f30 <Gets+0x90>
 8048f91:	c6 06 00             	movb   $0x0,(%esi)
 8048f94:	a1 e0 a1 04 08       	mov    0x804a1e0,%eax
 8048f99:	c6 84 40 00 a2 04 08 	movb   $0x0,0x804a200(%eax,%eax,2)
 8048fa0:	00 
 8048fa1:	83 c4 2c             	add    $0x2c,%esp
 8048fa4:	89 f8                	mov    %edi,%eax
 8048fa6:	5b                   	pop    %ebx
 8048fa7:	5e                   	pop    %esi
 8048fa8:	5f                   	pop    %edi
 8048fa9:	5d                   	pop    %ebp
 8048faa:	c3                   	ret    
 8048fab:	90                   	nop
 8048fac:	8d 74 26 00          	lea    0x0(%esi,%eiz,1),%esi
 8048fb0:	89 fe                	mov    %edi,%esi
 8048fb2:	8b 7d e0             	mov    -0x20(%ebp),%edi
 8048fb5:	eb da                	jmp    8048f91 <Gets+0xf1>
 8048fb7:	90                   	nop
 8048fb8:	8b 55 e4             	mov    -0x1c(%ebp),%edx
 8048fbb:	c1 e2 04             	shl    $0x4,%edx
 8048fbe:	8d 04 02             	lea    (%edx,%eax,1),%eax
 8048fc1:	89 c1                	mov    %eax,%ecx
 8048fc3:	88 07                	mov    %al,(%edi)
 8048fc5:	a1 e0 a1 04 08       	mov    0x804a1e0,%eax
 8048fca:	3d ff 03 00 00       	cmp    $0x3ff,%eax
 8048fcf:	7f 37                	jg     8049008 <Gets+0x168>
 8048fd1:	89 cb                	mov    %ecx,%ebx
 8048fd3:	83 e1 0f             	and    $0xf,%ecx
 8048fd6:	c0 eb 04             	shr    $0x4,%bl
 8048fd9:	0f b6 89 bc 9b 04 08 	movzbl 0x8049bbc(%ecx),%ecx
 8048fe0:	0f be db             	movsbl %bl,%ebx
 8048fe3:	0f b6 9b bc 9b 04 08 	movzbl 0x8049bbc(%ebx),%ebx
 8048fea:	8d 14 40             	lea    (%eax,%eax,2),%edx
 8048fed:	83 c0 01             	add    $0x1,%eax
 8048ff0:	c6 82 02 a2 04 08 20 	movb   $0x20,0x804a202(%edx)
 8048ff7:	88 8a 01 a2 04 08    	mov    %cl,0x804a201(%edx)
 8048ffd:	a3 e0 a1 04 08       	mov    %eax,0x804a1e0
 8049002:	88 9a 00 a2 04 08    	mov    %bl,0x804a200(%edx)
 8049008:	83 c7 01             	add    $0x1,%edi
 804900b:	e9 c0 fe ff ff       	jmp    8048ed0 <Gets+0x30>

08049010 <getbufn>:
 8049010:	55                   	push   %ebp
 8049011:	89 e5                	mov    %esp,%ebp
 8049013:	81 ec 18 02 00 00    	sub    $0x218,%esp
 8049019:	8d 85 f8 fd ff ff    	lea    -0x208(%ebp),%eax
 804901f:	89 04 24             	mov    %eax,(%esp)
 8049022:	e8 79 fe ff ff       	call   8048ea0 <Gets>
 8049027:	b8 01 00 00 00       	mov    $0x1,%eax
 804902c:	c9                   	leave  
 804902d:	c3                   	ret    
 804902e:	66 90                	xchg   %ax,%ax

08049030 <testn>:
 8049030:	55                   	push   %ebp
 8049031:	89 e5                	mov    %esp,%ebp
 8049033:	83 ec 28             	sub    $0x28,%esp
 8049036:	c7 45 f4 ef be ad de 	movl   $0xdeadbeef,-0xc(%ebp)
 804903d:	c7 05 6c a1 04 08 04 	movl   $0x4,0x804a16c
 8049044:	00 00 00 
 8049047:	e8 c4 ff ff ff       	call   8049010 <getbufn>
 804904c:	8b 55 f4             	mov    -0xc(%ebp),%edx
 804904f:	81 fa ef be ad de    	cmp    $0xdeadbeef,%edx
 8049055:	75 21                	jne    8049078 <testn+0x48>
 8049057:	3b 05 cc a1 04 08    	cmp    0x804a1cc,%eax
 804905d:	74 29                	je     8049088 <testn+0x58>
 804905f:	89 44 24 04          	mov    %eax,0x4(%esp)
 8049063:	c7 04 24 c5 9a 04 08 	movl   $0x8049ac5,(%esp)
 804906a:	e8 7d f7 ff ff       	call   80487ec <printf@plt>
 804906f:	c9                   	leave  
 8049070:	c3                   	ret    
 8049071:	8d b4 26 00 00 00 00 	lea    0x0(%esi,%eiz,1),%esi
 8049078:	c7 04 24 24 99 04 08 	movl   $0x8049924,(%esp)
 804907f:	e8 d8 f7 ff ff       	call   804885c <puts@plt>
 8049084:	c9                   	leave  
 8049085:	c3                   	ret    
 8049086:	66 90                	xchg   %ax,%ax
 8049088:	89 44 24 04          	mov    %eax,0x4(%esp)
 804908c:	c7 04 24 50 99 04 08 	movl   $0x8049950,(%esp)
 8049093:	e8 54 f7 ff ff       	call   80487ec <printf@plt>
 8049098:	c7 04 24 04 00 00 00 	movl   $0x4,(%esp)
 804909f:	e8 fc f9 ff ff       	call   8048aa0 <validate>
 80490a4:	c9                   	leave  
 80490a5:	c3                   	ret    
 80490a6:	8d 76 00             	lea    0x0(%esi),%esi
 80490a9:	8d bc 27 00 00 00 00 	lea    0x0(%edi,%eiz,1),%edi

080490b0 <getbuf>:
 80490b0:	55                   	push   %ebp
 80490b1:	89 e5                	mov    %esp,%ebp
 80490b3:	83 ec 28             	sub    $0x28,%esp
 80490b6:	8d 45 ec             	lea    -0x14(%ebp),%eax
 80490b9:	89 04 24             	mov    %eax,(%esp)
 80490bc:	e8 df fd ff ff       	call   8048ea0 <Gets>
 80490c1:	b8 01 00 00 00       	mov    $0x1,%eax
 80490c6:	c9                   	leave  
 80490c7:	c3                   	ret    
 80490c8:	90                   	nop
 80490c9:	8d b4 26 00 00 00 00 	lea    0x0(%esi,%eiz,1),%esi

080490d0 <test>:
 80490d0:	55                   	push   %ebp
 80490d1:	89 e5                	mov    %esp,%ebp
 80490d3:	83 ec 28             	sub    $0x28,%esp
 80490d6:	c7 45 f4 ef be ad de 	movl   $0xdeadbeef,-0xc(%ebp)
 80490dd:	c7 05 6c a1 04 08 03 	movl   $0x3,0x804a16c
 80490e4:	00 00 00 
 80490e7:	e8 c4 ff ff ff       	call   80490b0 <getbuf>
 80490ec:	8b 55 f4             	mov    -0xc(%ebp),%edx
 80490ef:	81 fa ef be ad de    	cmp    $0xdeadbeef,%edx
 80490f5:	75 21                	jne    8049118 <test+0x48>
 80490f7:	3b 05 cc a1 04 08    	cmp    0x804a1cc,%eax
 80490fd:	74 29                	je     8049128 <test+0x58>
 80490ff:	89 44 24 04          	mov    %eax,0x4(%esp)
 8049103:	c7 04 24 fe 9a 04 08 	movl   $0x8049afe,(%esp)
 804910a:	e8 dd f6 ff ff       	call   80487ec <printf@plt>
 804910f:	c9                   	leave  
 8049110:	c3                   	ret    
 8049111:	8d b4 26 00 00 00 00 	lea    0x0(%esi,%eiz,1),%esi
 8049118:	c7 04 24 24 99 04 08 	movl   $0x8049924,(%esp)
 804911f:	e8 38 f7 ff ff       	call   804885c <puts@plt>
 8049124:	c9                   	leave  
 8049125:	c3                   	ret    
 8049126:	66 90                	xchg   %ax,%ax
 8049128:	89 44 24 04          	mov    %eax,0x4(%esp)
 804912c:	c7 04 24 e1 9a 04 08 	movl   $0x8049ae1,(%esp)
 8049133:	e8 b4 f6 ff ff       	call   80487ec <printf@plt>
 8049138:	c7 04 24 03 00 00 00 	movl   $0x3,(%esp)
 804913f:	e8 5c f9 ff ff       	call   8048aa0 <validate>
 8049144:	c9                   	leave  
 8049145:	c3                   	ret    
 8049146:	8d 76 00             	lea    0x0(%esi),%esi
 8049149:	8d bc 27 00 00 00 00 	lea    0x0(%edi,%eiz,1),%edi

08049150 <launch>:
 8049150:	55                   	push   %ebp
 8049151:	89 e5                	mov    %esp,%ebp
 8049153:	53                   	push   %ebx
 8049154:	89 c3                	mov    %eax,%ebx
 8049156:	8d 45 b8             	lea    -0x48(%ebp),%eax
 8049159:	83 ec 54             	sub    $0x54,%esp
 804915c:	25 f8 3f 00 00       	and    $0x3ff8,%eax
 8049161:	01 c2                	add    %eax,%edx
 8049163:	8d 42 1e             	lea    0x1e(%edx),%eax
 8049166:	83 e0 f0             	and    $0xfffffff0,%eax
 8049169:	29 c4                	sub    %eax,%esp
 804916b:	8d 44 24 1b          	lea    0x1b(%esp),%eax
 804916f:	83 e0 f0             	and    $0xfffffff0,%eax
 8049172:	89 54 24 08          	mov    %edx,0x8(%esp)
 8049176:	c7 44 24 04 f4 00 00 	movl   $0xf4,0x4(%esp)
 804917d:	00 
 804917e:	89 04 24             	mov    %eax,(%esp)
 8049181:	e8 a6 f5 ff ff       	call   804872c <memset@plt>
 8049186:	8b 0d c4 a1 04 08    	mov    0x804a1c4,%ecx
 804918c:	85 c9                	test   %ecx,%ecx
 804918e:	75 16                	jne    80491a6 <launch+0x56>
 8049190:	8b 15 c8 a1 04 08    	mov    0x804a1c8,%edx
 8049196:	85 d2                	test   %edx,%edx
 8049198:	74 46                	je     80491e0 <launch+0x90>
 804919a:	c7 04 24 19 9b 04 08 	movl   $0x8049b19,(%esp)
 80491a1:	e8 46 f6 ff ff       	call   80487ec <printf@plt>
 80491a6:	85 db                	test   %ebx,%ebx
 80491a8:	74 2e                	je     80491d8 <launch+0x88>
 80491aa:	e8 81 fe ff ff       	call   8049030 <testn>
 80491af:	a1 d8 a1 04 08       	mov    0x804a1d8,%eax
 80491b4:	85 c0                	test   %eax,%eax
 80491b6:	75 16                	jne    80491ce <launch+0x7e>
 80491b8:	c7 04 24 cd 99 04 08 	movl   $0x80499cd,(%esp)
 80491bf:	e8 98 f6 ff ff       	call   804885c <puts@plt>
 80491c4:	c7 05 d8 a1 04 08 00 	movl   $0x0,0x804a1d8
 80491cb:	00 00 00 
 80491ce:	8b 5d fc             	mov    -0x4(%ebp),%ebx
 80491d1:	c9                   	leave  
 80491d2:	c3                   	ret    
 80491d3:	90                   	nop
 80491d4:	8d 74 26 00          	lea    0x0(%esi,%eiz,1),%esi
 80491d8:	e8 f3 fe ff ff       	call   80490d0 <test>
 80491dd:	eb d0                	jmp    80491af <launch+0x5f>
 80491df:	90                   	nop
 80491e0:	c7 04 24 2a 9b 04 08 	movl   $0x8049b2a,(%esp)
 80491e7:	e8 00 f6 ff ff       	call   80487ec <printf@plt>
 80491ec:	eb b8                	jmp    80491a6 <launch+0x56>
 80491ee:	66 90                	xchg   %ax,%ax

080491f0 <main>:
 80491f0:	55                   	push   %ebp
 80491f1:	89 e5                	mov    %esp,%ebp
 80491f3:	83 e4 f0             	and    $0xfffffff0,%esp
 80491f6:	57                   	push   %edi
 80491f7:	bf 01 00 00 00       	mov    $0x1,%edi
 80491fc:	56                   	push   %esi
 80491fd:	53                   	push   %ebx
 80491fe:	83 ec 24             	sub    $0x24,%esp
 8049201:	8b 75 08             	mov    0x8(%ebp),%esi
 8049204:	8b 5d 0c             	mov    0xc(%ebp),%ebx
 8049207:	c7 44 24 04 40 8a 04 	movl   $0x8048a40,0x4(%esp)
 804920e:	08 
 804920f:	c7 04 24 0b 00 00 00 	movl   $0xb,(%esp)
 8049216:	e8 d1 f4 ff ff       	call   80486ec <signal@plt>
 804921b:	c7 44 24 04 70 8a 04 	movl   $0x8048a70,0x4(%esp)
 8049222:	08 
 8049223:	c7 04 24 07 00 00 00 	movl   $0x7,(%esp)
 804922a:	e8 bd f4 ff ff       	call   80486ec <signal@plt>
 804922f:	c7 44 24 04 00 8a 04 	movl   $0x8048a00,0x4(%esp)
 8049236:	08 
 8049237:	c7 04 24 0e 00 00 00 	movl   $0xe,(%esp)
 804923e:	e8 a9 f4 ff ff       	call   80486ec <signal@plt>
 8049243:	c7 44 24 04 d0 89 04 	movl   $0x80489d0,0x4(%esp)
 804924a:	08 
 804924b:	c7 04 24 04 00 00 00 	movl   $0x4,(%esp)
 8049252:	e8 95 f4 ff ff       	call   80486ec <signal@plt>
 8049257:	a1 a0 a1 04 08       	mov    0x804a1a0,%eax
 804925c:	c7 44 24 1c 00 00 00 	movl   $0x0,0x1c(%esp)
 8049263:	00 
 8049264:	a3 c0 a1 04 08       	mov    %eax,0x804a1c0
 8049269:	8d b4 26 00 00 00 00 	lea    0x0(%esi,%eiz,1),%esi
 8049270:	c7 44 24 08 66 9b 04 	movl   $0x8049b66,0x8(%esp)
 8049277:	08 
 8049278:	89 5c 24 04          	mov    %ebx,0x4(%esp)
 804927c:	89 34 24             	mov    %esi,(%esp)
 804927f:	e8 18 f5 ff ff       	call   804879c <getopt@plt>
 8049284:	3c ff                	cmp    $0xff,%al
 8049286:	0f 84 2c 01 00 00    	je     80493b8 <main+0x1c8>
 804928c:	83 e8 66             	sub    $0x66,%eax
 804928f:	3c 12                	cmp    $0x12,%al
 8049291:	76 0d                	jbe    80492a0 <main+0xb0>
 8049293:	8b 03                	mov    (%ebx),%eax
 8049295:	e8 d6 f6 ff ff       	call   8048970 <usage>
 804929a:	eb d4                	jmp    8049270 <main+0x80>
 804929c:	8d 74 26 00          	lea    0x0(%esi,%eiz,1),%esi
 80492a0:	0f b6 c0             	movzbl %al,%eax
 80492a3:	ff 24 85 70 9b 04 08 	jmp    *0x8049b70(,%eax,4)
 80492aa:	8d b6 00 00 00 00    	lea    0x0(%esi),%esi
 80492b0:	a1 a4 a1 04 08       	mov    0x804a1a4,%eax
 80492b5:	89 04 24             	mov    %eax,(%esp)
 80492b8:	e8 bf f5 ff ff       	call   804887c <__strdup@plt>
 80492bd:	c7 04 24 37 9b 04 08 	movl   $0x8049b37,(%esp)
 80492c4:	89 44 24 04          	mov    %eax,0x4(%esp)
 80492c8:	a3 d0 a1 04 08       	mov    %eax,0x804a1d0
 80492cd:	e8 1a f5 ff ff       	call   80487ec <printf@plt>
 80492d2:	a1 d0 a1 04 08       	mov    0x804a1d0,%eax
 80492d7:	89 04 24             	mov    %eax,(%esp)
 80492da:	e8 21 02 00 00       	call   8049500 <gencookie>
 80492df:	c7 04 24 41 9b 04 08 	movl   $0x8049b41,(%esp)
 80492e6:	89 44 24 04          	mov    %eax,0x4(%esp)
 80492ea:	a3 cc a1 04 08       	mov    %eax,0x804a1cc
 80492ef:	e8 f8 f4 ff ff       	call   80487ec <printf@plt>
 80492f4:	e9 77 ff ff ff       	jmp    8049270 <main+0x80>
 80492f9:	8d b4 26 00 00 00 00 	lea    0x0(%esi,%eiz,1),%esi
 8049300:	c7 05 68 a1 04 08 01 	movl   $0x1,0x804a168
 8049307:	00 00 00 
 804930a:	e9 61 ff ff ff       	jmp    8049270 <main+0x80>
 804930f:	90                   	nop
 8049310:	c7 05 c4 a1 04 08 01 	movl   $0x1,0x804a1c4
 8049317:	00 00 00 
 804931a:	e9 51 ff ff ff       	jmp    8049270 <main+0x80>
 804931f:	90                   	nop
 8049320:	bf 05 00 00 00       	mov    $0x5,%edi
 8049325:	c7 44 24 1c 01 00 00 	movl   $0x1,0x1c(%esp)
 804932c:	00 
 804932d:	e9 3e ff ff ff       	jmp    8049270 <main+0x80>
 8049332:	8d b6 00 00 00 00    	lea    0x0(%esi),%esi
 8049338:	c7 05 c8 a1 04 08 01 	movl   $0x1,0x804a1c8
 804933f:	00 00 00 
 8049342:	e9 29 ff ff ff       	jmp    8049270 <main+0x80>
 8049347:	90                   	nop
 8049348:	c7 05 d4 a1 04 08 01 	movl   $0x1,0x804a1d4
 804934f:	00 00 00 
 8049352:	c7 05 c4 a1 04 08 01 	movl   $0x1,0x804a1c4
 8049359:	00 00 00 
 804935c:	c7 05 70 a1 04 08 01 	movl   $0x1,0x804a170
 8049363:	00 00 00 
 8049366:	e9 05 ff ff ff       	jmp    8049270 <main+0x80>
 804936b:	90                   	nop
 804936c:	8d 74 26 00          	lea    0x0(%esi,%eiz,1),%esi
 8049370:	a1 a4 a1 04 08       	mov    0x804a1a4,%eax
 8049375:	c7 44 24 04 4f 9b 04 	movl   $0x8049b4f,0x4(%esp)
 804937c:	08 
 804937d:	89 04 24             	mov    %eax,(%esp)
 8049380:	e8 27 f4 ff ff       	call   80487ac <fopen@plt>
 8049385:	85 c0                	test   %eax,%eax
 8049387:	a3 c0 a1 04 08       	mov    %eax,0x804a1c0
 804938c:	0f 85 de fe ff ff    	jne    8049270 <main+0x80>
 8049392:	a1 a4 a1 04 08       	mov    0x804a1a4,%eax
 8049397:	c7 04 24 51 9b 04 08 	movl   $0x8049b51,(%esp)
 804939e:	89 44 24 04          	mov    %eax,0x4(%esp)
 80493a2:	e8 45 f4 ff ff       	call   80487ec <printf@plt>
 80493a7:	8b 03                	mov    (%ebx),%eax
 80493a9:	e8 c2 f5 ff ff       	call   8048970 <usage>
 80493ae:	e9 bd fe ff ff       	jmp    8049270 <main+0x80>
 80493b3:	90                   	nop
 80493b4:	8d 74 26 00          	lea    0x0(%esi,%eiz,1),%esi
 80493b8:	8b 35 d0 a1 04 08    	mov    0x804a1d0,%esi
 80493be:	85 f6                	test   %esi,%esi
 80493c0:	0f 84 a5 00 00 00    	je     804946b <main+0x27b>
 80493c6:	a1 cc a1 04 08       	mov    0x804a1cc,%eax
 80493cb:	89 04 24             	mov    %eax,(%esp)
 80493ce:	e8 29 f4 ff ff       	call   80487fc <srandom@plt>
 80493d3:	e8 04 f3 ff ff       	call   80486dc <random@plt>
 80493d8:	c7 44 24 04 04 00 00 	movl   $0x4,0x4(%esp)
 80493df:	00 
 80493e0:	89 3c 24             	mov    %edi,(%esp)
 80493e3:	25 f8 0f 00 00       	and    $0xff8,%eax
 80493e8:	89 44 24 18          	mov    %eax,0x18(%esp)
 80493ec:	e8 1b f3 ff ff       	call   804870c <calloc@plt>
 80493f1:	89 c6                	mov    %eax,%esi
 80493f3:	8d 47 fe             	lea    -0x2(%edi),%eax
 80493f6:	85 c0                	test   %eax,%eax
 80493f8:	89 44 24 14          	mov    %eax,0x14(%esp)
 80493fc:	7e 20                	jle    804941e <main+0x22e>
 80493fe:	89 7c 24 10          	mov    %edi,0x10(%esp)
 8049402:	31 db                	xor    %ebx,%ebx
 8049404:	89 c7                	mov    %eax,%edi
 8049406:	66 90                	xchg   %ax,%ax
 8049408:	e8 cf f2 ff ff       	call   80486dc <random@plt>
 804940d:	83 e0 38             	and    $0x38,%eax
 8049410:	89 04 9e             	mov    %eax,(%esi,%ebx,4)
 8049413:	83 c3 01             	add    $0x1,%ebx
 8049416:	39 fb                	cmp    %edi,%ebx
 8049418:	7c ee                	jl     8049408 <main+0x218>
 804941a:	8b 7c 24 10          	mov    0x10(%esp),%edi
 804941e:	83 ff 01             	cmp    $0x1,%edi
 8049421:	74 0b                	je     804942e <main+0x23e>
 8049423:	8b 44 24 14          	mov    0x14(%esp),%eax
 8049427:	c7 04 86 38 00 00 00 	movl   $0x38,(%esi,%eax,4)
 804942e:	c7 44 be fc 00 00 00 	movl   $0x0,-0x4(%esi,%edi,4)
 8049435:	00 
 8049436:	a1 70 a1 04 08       	mov    0x804a170,%eax
 804943b:	31 db                	xor    %ebx,%ebx
 804943d:	89 04 24             	mov    %eax,(%esp)
 8049440:	e8 77 f3 ff ff       	call   80487bc <alarm@plt>
 8049445:	8d 76 00             	lea    0x0(%esi),%esi
 8049448:	8b 54 24 18          	mov    0x18(%esp),%edx
 804944c:	8b 44 24 1c          	mov    0x1c(%esp),%eax
 8049450:	03 14 9e             	add    (%esi,%ebx,4),%edx
 8049453:	83 c3 01             	add    $0x1,%ebx
 8049456:	e8 f5 fc ff ff       	call   8049150 <launch>
 804945b:	39 fb                	cmp    %edi,%ebx
 804945d:	7c e9                	jl     8049448 <main+0x258>
 804945f:	83 c4 24             	add    $0x24,%esp
 8049462:	31 c0                	xor    %eax,%eax
 8049464:	5b                   	pop    %ebx
 8049465:	5e                   	pop    %esi
 8049466:	5f                   	pop    %edi
 8049467:	89 ec                	mov    %ebp,%esp
 8049469:	5d                   	pop    %ebp
 804946a:	c3                   	ret    
 804946b:	c7 04 24 70 99 04 08 	movl   $0x8049970,(%esp)
 8049472:	e8 e5 f3 ff ff       	call   804885c <puts@plt>
 8049477:	8b 03                	mov    (%ebx),%eax
 8049479:	e8 f2 f4 ff ff       	call   8048970 <usage>
 804947e:	e9 43 ff ff ff       	jmp    80493c6 <main+0x1d6>
 8049483:	90                   	nop
 8049484:	90                   	nop
 8049485:	90                   	nop
 8049486:	90                   	nop
 8049487:	90                   	nop
 8049488:	90                   	nop
 8049489:	90                   	nop
 804948a:	90                   	nop
 804948b:	90                   	nop
 804948c:	90                   	nop
 804948d:	90                   	nop
 804948e:	90                   	nop
 804948f:	90                   	nop

08049490 <hash>:
 8049490:	55                   	push   %ebp
 8049491:	31 c0                	xor    %eax,%eax
 8049493:	89 e5                	mov    %esp,%ebp
 8049495:	8b 4d 08             	mov    0x8(%ebp),%ecx
 8049498:	0f b6 11             	movzbl (%ecx),%edx
 804949b:	84 d2                	test   %dl,%dl
 804949d:	74 14                	je     80494b3 <hash+0x23>
 804949f:	90                   	nop
 80494a0:	6b c0 67             	imul   $0x67,%eax,%eax
 80494a3:	0f be d2             	movsbl %dl,%edx
 80494a6:	83 c1 01             	add    $0x1,%ecx
 80494a9:	8d 04 02             	lea    (%edx,%eax,1),%eax
 80494ac:	0f b6 11             	movzbl (%ecx),%edx
 80494af:	84 d2                	test   %dl,%dl
 80494b1:	75 ed                	jne    80494a0 <hash+0x10>
 80494b3:	5d                   	pop    %ebp
 80494b4:	c3                   	ret    
 80494b5:	8d 74 26 00          	lea    0x0(%esi,%eiz,1),%esi
 80494b9:	8d bc 27 00 00 00 00 	lea    0x0(%edi,%eiz,1),%edi

080494c0 <check>:
 80494c0:	55                   	push   %ebp
 80494c1:	89 e5                	mov    %esp,%ebp
 80494c3:	8b 45 08             	mov    0x8(%ebp),%eax
 80494c6:	89 c2                	mov    %eax,%edx
 80494c8:	c1 ea 1c             	shr    $0x1c,%edx
 80494cb:	85 d2                	test   %edx,%edx
 80494cd:	74 21                	je     80494f0 <check+0x30>
 80494cf:	31 c9                	xor    %ecx,%ecx
 80494d1:	89 c2                	mov    %eax,%edx
 80494d3:	d3 ea                	shr    %cl,%edx
 80494d5:	80 fa 0a             	cmp    $0xa,%dl
 80494d8:	74 16                	je     80494f0 <check+0x30>
 80494da:	83 c1 08             	add    $0x8,%ecx
 80494dd:	83 f9 20             	cmp    $0x20,%ecx
 80494e0:	75 ef                	jne    80494d1 <check+0x11>
 80494e2:	b8 01 00 00 00       	mov    $0x1,%eax
 80494e7:	5d                   	pop    %ebp
 80494e8:	c3                   	ret    
 80494e9:	8d b4 26 00 00 00 00 	lea    0x0(%esi,%eiz,1),%esi
 80494f0:	31 c0                	xor    %eax,%eax
 80494f2:	5d                   	pop    %ebp
 80494f3:	c3                   	ret    
 80494f4:	8d b6 00 00 00 00    	lea    0x0(%esi),%esi
 80494fa:	8d bf 00 00 00 00    	lea    0x0(%edi),%edi

08049500 <gencookie>:
 8049500:	55                   	push   %ebp
 8049501:	31 c9                	xor    %ecx,%ecx
 8049503:	89 e5                	mov    %esp,%ebp
 8049505:	83 ec 18             	sub    $0x18,%esp
 8049508:	8b 55 08             	mov    0x8(%ebp),%edx
 804950b:	0f b6 02             	movzbl (%edx),%eax
 804950e:	84 c0                	test   %al,%al
 8049510:	74 19                	je     804952b <gencookie+0x2b>
 8049512:	8d b6 00 00 00 00    	lea    0x0(%esi),%esi
 8049518:	6b c9 67             	imul   $0x67,%ecx,%ecx
 804951b:	0f be c0             	movsbl %al,%eax
 804951e:	83 c2 01             	add    $0x1,%edx
 8049521:	8d 0c 08             	lea    (%eax,%ecx,1),%ecx
 8049524:	0f b6 02             	movzbl (%edx),%eax
 8049527:	84 c0                	test   %al,%al
 8049529:	75 ed                	jne    8049518 <gencookie+0x18>
 804952b:	89 0c 24             	mov    %ecx,(%esp)
 804952e:	e8 99 f1 ff ff       	call   80486cc <srand@plt>
 8049533:	90                   	nop
 8049534:	8d 74 26 00          	lea    0x0(%esi,%eiz,1),%esi
 8049538:	e8 2f f3 ff ff       	call   804886c <rand@plt>
 804953d:	89 c2                	mov    %eax,%edx
 804953f:	c1 ea 1c             	shr    $0x1c,%edx
 8049542:	85 d2                	test   %edx,%edx
 8049544:	74 f2                	je     8049538 <gencookie+0x38>
 8049546:	31 c9                	xor    %ecx,%ecx
 8049548:	89 c2                	mov    %eax,%edx
 804954a:	d3 ea                	shr    %cl,%edx
 804954c:	80 fa 0a             	cmp    $0xa,%dl
 804954f:	74 e7                	je     8049538 <gencookie+0x38>
 8049551:	83 c1 08             	add    $0x8,%ecx
 8049554:	83 f9 20             	cmp    $0x20,%ecx
 8049557:	75 ef                	jne    8049548 <gencookie+0x48>
 8049559:	c9                   	leave  
 804955a:	c3                   	ret    
 804955b:	90                   	nop
 804955c:	90                   	nop
 804955d:	90                   	nop
 804955e:	90                   	nop
 804955f:	90                   	nop

08049560 <__libc_csu_fini>:
 8049560:	55                   	push   %ebp
 8049561:	89 e5                	mov    %esp,%ebp
 8049563:	5d                   	pop    %ebp
 8049564:	c3                   	ret    
 8049565:	66 66 2e 0f 1f 84 00 	data32 nopw %cs:0x0(%eax,%eax,1)
 804956c:	00 00 00 00 

08049570 <__libc_csu_init>:
 8049570:	55                   	push   %ebp
 8049571:	89 e5                	mov    %esp,%ebp
 8049573:	57                   	push   %edi
 8049574:	56                   	push   %esi
 8049575:	53                   	push   %ebx
 8049576:	e8 4f 00 00 00       	call   80495ca <__i686.get_pc_thunk.bx>
 804957b:	81 c3 65 0b 00 00    	add    $0xb65,%ebx
 8049581:	83 ec 1c             	sub    $0x1c,%esp
 8049584:	e8 f3 f0 ff ff       	call   804867c <_init>
 8049589:	8d bb 20 ff ff ff    	lea    -0xe0(%ebx),%edi
 804958f:	8d 83 20 ff ff ff    	lea    -0xe0(%ebx),%eax
 8049595:	29 c7                	sub    %eax,%edi
 8049597:	c1 ff 02             	sar    $0x2,%edi
 804959a:	85 ff                	test   %edi,%edi
 804959c:	74 24                	je     80495c2 <__libc_csu_init+0x52>
 804959e:	31 f6                	xor    %esi,%esi
 80495a0:	8b 45 10             	mov    0x10(%ebp),%eax
 80495a3:	89 44 24 08          	mov    %eax,0x8(%esp)
 80495a7:	8b 45 0c             	mov    0xc(%ebp),%eax
 80495aa:	89 44 24 04          	mov    %eax,0x4(%esp)
 80495ae:	8b 45 08             	mov    0x8(%ebp),%eax
 80495b1:	89 04 24             	mov    %eax,(%esp)
 80495b4:	ff 94 b3 20 ff ff ff 	call   *-0xe0(%ebx,%esi,4)
 80495bb:	83 c6 01             	add    $0x1,%esi
 80495be:	39 fe                	cmp    %edi,%esi
 80495c0:	72 de                	jb     80495a0 <__libc_csu_init+0x30>
 80495c2:	83 c4 1c             	add    $0x1c,%esp
 80495c5:	5b                   	pop    %ebx
 80495c6:	5e                   	pop    %esi
 80495c7:	5f                   	pop    %edi
 80495c8:	5d                   	pop    %ebp
 80495c9:	c3                   	ret    

080495ca <__i686.get_pc_thunk.bx>:
 80495ca:	8b 1c 24             	mov    (%esp),%ebx
 80495cd:	c3                   	ret    
 80495ce:	90                   	nop
 80495cf:	90                   	nop

080495d0 <__do_global_ctors_aux>:
 80495d0:	55                   	push   %ebp
 80495d1:	89 e5                	mov    %esp,%ebp
 80495d3:	53                   	push   %ebx
 80495d4:	83 ec 04             	sub    $0x4,%esp
 80495d7:	a1 00 a0 04 08       	mov    0x804a000,%eax
 80495dc:	83 f8 ff             	cmp    $0xffffffff,%eax
 80495df:	74 13                	je     80495f4 <__do_global_ctors_aux+0x24>
 80495e1:	bb 00 a0 04 08       	mov    $0x804a000,%ebx
 80495e6:	66 90                	xchg   %ax,%ax
 80495e8:	83 eb 04             	sub    $0x4,%ebx
 80495eb:	ff d0                	call   *%eax
 80495ed:	8b 03                	mov    (%ebx),%eax
 80495ef:	83 f8 ff             	cmp    $0xffffffff,%eax
 80495f2:	75 f4                	jne    80495e8 <__do_global_ctors_aux+0x18>
 80495f4:	83 c4 04             	add    $0x4,%esp
 80495f7:	5b                   	pop    %ebx
 80495f8:	5d                   	pop    %ebp
 80495f9:	c3                   	ret    
 80495fa:	90                   	nop
 80495fb:	90                   	nop

Disassembly of section .fini:

080495fc <_fini>:
 80495fc:	55                   	push   %ebp
 80495fd:	89 e5                	mov    %esp,%ebp
 80495ff:	53                   	push   %ebx
 8049600:	83 ec 04             	sub    $0x4,%esp
 8049603:	e8 00 00 00 00       	call   8049608 <_fini+0xc>
 8049608:	5b                   	pop    %ebx
 8049609:	81 c3 d8 0a 00 00    	add    $0xad8,%ebx
 804960f:	e8 bc f2 ff ff       	call   80488d0 <__do_global_dtors_aux>
 8049614:	59                   	pop    %ecx
 8049615:	5b                   	pop    %ebx
 8049616:	c9                   	leave  
 8049617:	c3                   	ret    
